target datalayout = "e-m:e-p270:32:32-p271:32:32-p272:64:64-i64:64-i128:128-f80:128-n8:16:32:64-S128"
target triple = "x86_64-pc-linux-gnu"

%union.LWLockPadded = type { %struct.LWLock, [112 x i8] }
%struct.LWLock = type { i16, %struct.pg_atomic_uint32, %struct.proclist_head }
%struct.pg_atomic_uint32 = type { i32 }
%struct.proclist_head = type { i32, i32 }
%struct.ReplicationState = type { i16, i64, i64, i32, %struct.ConditionVariable, %struct.LWLock }
%struct.ConditionVariable = type { i8, %struct.proclist_head }

@.str.1 = private unnamed_addr constant [9 x i8] c"origin.c\00", align 1
@MainLWLockArray = external global ptr, align 8
@session_replication_state = internal global ptr null, align 8
@.str.26 = private unnamed_addr constant [36 x i8] c"no replication origin is configured\00", align 1
@__func__.replorigin_session_reset = private unnamed_addr constant [25 x i8] c"replorigin_session_reset\00", align 1

; Function Attrs: nounwind uwtable
define dso_local void @replorigin_session_reset() #0 {
  %1 = alloca ptr, align 8
  call void @llvm.lifetime.start.p0(i64 8, ptr %1) #9
  %2 = load ptr, ptr @session_replication_state, align 8
  %3 = icmp eq ptr %2, null
  br i1 %3, label %4, label %16

4:                                                ; preds = %0
  br label %5

5:                                                ; preds = %4
  br i1 true, label %6, label %8

6:                                                ; preds = %5
  %7 = call zeroext i1 @errstart_cold(i32 noundef 21, ptr noundef null) #10
  br i1 %7, label %10, label %13

8:                                                ; preds = %5
  %9 = call zeroext i1 @errstart(i32 noundef 21, ptr noundef null)
  br i1 %9, label %10, label %13

10:                                               ; preds = %8, %6
  %11 = call i32 @errcode(i32 noundef 325)
  %12 = call i32 (ptr, ...) @errmsg(ptr noundef @.str.26)
  call void @errfinish(ptr noundef @.str.1, i32 noundef 1203, ptr noundef @__func__.replorigin_session_reset)
  br label %13

13:                                               ; preds = %10, %8, %6
  unreachable

14:                                               ; No predecessors!
  br label %15

15:                                               ; preds = %14
  br label %16

16:                                               ; preds = %15, %0
  %17 = load ptr, ptr @MainLWLockArray, align 8
  %18 = getelementptr inbounds %union.LWLockPadded, ptr %17, i64 40
  %19 = call zeroext i1 @LWLockAcquire(ptr noundef %18, i32 noundef 0)
  %20 = load ptr, ptr @session_replication_state, align 8
  %21 = getelementptr inbounds nuw %struct.ReplicationState, ptr %20, i32 0, i32 3
  store i32 0, ptr %21, align 8
  %22 = load ptr, ptr @session_replication_state, align 8
  %23 = getelementptr inbounds nuw %struct.ReplicationState, ptr %22, i32 0, i32 4
  store ptr %23, ptr %1, align 8
  store ptr null, ptr @session_replication_state, align 8
  %24 = load ptr, ptr @MainLWLockArray, align 8
  %25 = getelementptr inbounds %union.LWLockPadded, ptr %24, i64 40
  call void @LWLockRelease(ptr noundef %25)
  %26 = load ptr, ptr %1, align 8
  call void @ConditionVariableBroadcast(ptr noundef %26)
  call void @llvm.lifetime.end.p0(i64 8, ptr %1) #9
  ret void
}