; Function Attrs: nounwind uwtable
define dso_local void @replorigin_session_reset() local_unnamed_addr #0 {
  %1 = load ptr, ptr @session_replication_state, align 8
  %2 = icmp eq ptr %1, null
  br i1 %2, label %3, label %7

3:                                                ; preds = %0
  %4 = tail call zeroext i1 @errstart_cold(i32 noundef 21, ptr noundef null) #11
  tail call void @llvm.assume(i1 %4)
  %5 = tail call i32 @errcode(i32 noundef 325) #10
  %6 = tail call i32 (ptr, ...) @errmsg(ptr noundef nonnull @.str.26) #10
  tail call void @errfinish(ptr noundef nonnull @.str.1, i32 noundef 1203, ptr noundef nonnull @__func__.replorigin_session_reset) #10
  unreachable

7:                                                ; preds = %0
  %8 = load ptr, ptr @MainLWLockArray, align 8
  %9 = getelementptr inbounds nuw i8, ptr %8, i64 5120
  %10 = tail call zeroext i1 @LWLockAcquire(ptr noundef nonnull %9, i32 noundef 0) #10
  %11 = load ptr, ptr @session_replication_state, align 8
  %12 = getelementptr inbounds nuw i8, ptr %11, i64 24
  store i32 0, ptr %12, align 8
  %13 = getelementptr inbounds nuw i8, ptr %11, i64 28
  store ptr null, ptr @session_replication_state, align 8
  %14 = load ptr, ptr @MainLWLockArray, align 8
  %15 = getelementptr inbounds nuw i8, ptr %14, i64 5120
  tail call void @LWLockRelease(ptr noundef nonnull %15) #10
  tail call void @ConditionVariableBroadcast(ptr noundef nonnull %13) #10
  ret void
}